Certificate:
    Data:
        Version: 3 (0x2)
        Serial Number: 1 (0x1)
    Signature Algorithm: sha256WithRSAEncryption
        Issuer: C=US, ST=IL, L=Chicago, O=IIT, OU=ECE, CN=ece443
        Validity
            Not Before: Oct 20 21:14:41 2021 GMT
            Not After : Oct 20 21:14:41 2022 GMT
        Subject: C=US, ST=IL, L=Chicago, O=IIT, CN=ece443.localhost
        Subject Public Key Info:
            Public Key Algorithm: rsaEncryption
                Public-Key: (2048 bit)
                Modulus:
                    00:b3:36:67:13:2d:f6:d8:91:a5:87:0f:c2:17:b0:
                    e5:5a:01:e7:f9:fe:86:12:e3:6f:fb:c2:27:b3:b8:
                    1f:ec:b7:5b:03:7e:63:90:dc:b4:a8:75:6f:8d:e7:
                    4d:98:de:d1:4d:ad:7f:bd:22:32:f6:70:29:48:d8:
                    f9:82:d1:19:6a:81:9e:50:ee:ff:7d:47:2c:24:a7:
                    19:85:ee:63:55:09:2e:c7:95:3a:d7:02:d6:ec:43:
                    30:c1:d6:57:60:e3:bd:5d:be:3e:61:f8:9b:5a:7d:
                    f5:6d:78:10:67:77:a8:c5:59:9a:82:dc:6b:64:76:
                    2b:f0:9e:c2:34:ea:e7:2c:a7:c1:72:37:52:c6:4b:
                    e8:f5:98:3a:4b:d0:29:75:8c:c3:7b:9c:47:7c:f0:
                    9f:31:ae:7d:6b:97:7f:20:00:a6:bb:aa:2c:06:c9:
                    49:e3:8a:28:85:4e:46:4a:52:68:a4:ef:e3:9c:f1:
                    17:7a:da:47:19:80:7c:58:ce:d7:8e:c7:ba:2b:42:
                    9a:89:db:d9:48:35:f3:83:22:91:11:75:5f:42:41:
                    56:87:9e:d2:a0:a3:5c:62:35:21:43:99:b2:2f:de:
                    18:8f:66:d1:cf:56:09:e4:95:04:94:1a:d2:f0:42:
                    96:8f:1b:6f:1e:18:ba:43:e7:81:f0:f0:35:04:84:
                    70:25
                Exponent: 65537 (0x10001)
        X509v3 extensions:
            X509v3 Subject Key Identifier: 
                EF:04:96:59:48:63:05:88:DA:58:CF:3A:F1:C2:BB:73:DD:E0:8B:31
            X509v3 Authority Key Identifier: 
                keyid:57:2B:17:E3:51:20:97:49:F5:7A:2C:C7:90:31:85:4F:5E:55:F1:55

            X509v3 Basic Constraints: 
                CA:FALSE
            X509v3 Key Usage: 
                Digital Signature, Key Encipherment
            X509v3 Subject Alternative Name: 
                DNS:localhost
            Netscape Comment: 
                OpenSSL Generated Certificate
    Signature Algorithm: sha256WithRSAEncryption
         4c:79:7c:9f:08:c9:88:79:c6:90:ff:26:fb:db:7f:92:0c:36:
         98:01:ac:10:1c:c0:ce:62:35:a1:c3:60:d9:0e:b6:dd:1c:5b:
         ee:ea:b6:30:b0:66:22:f0:fc:5f:46:5c:7f:d2:4d:ab:47:5f:
         70:07:a5:12:aa:8a:91:9c:9c:2e:e0:1d:8a:4d:53:b1:57:a4:
         49:54:ee:b8:88:ea:5f:1d:74:7d:c6:fd:67:06:53:fb:e2:db:
         5b:3b:64:20:14:4b:7f:1a:e4:00:87:19:9d:63:91:8a:5a:7f:
         c3:b3:9b:22:cc:a7:b4:84:c3:6e:bf:a4:24:74:17:db:f9:22:
         68:3b:56:e6:c5:83:ed:1f:68:9e:9b:78:73:e6:28:b6:ee:ae:
         1e:a3:ea:54:7b:9d:df:1d:15:56:b7:a6:07:e1:ce:cf:cd:63:
         30:38:0a:86:e2:fa:6f:26:ea:7f:81:cd:e7:3c:be:a2:67:4b:
         fe:c6:18:8f:a8:0d:ea:79:71:02:69:c3:cc:7f:f9:48:86:5e:
         26:96:7d:00:fc:3e:4e:fa:96:6f:c3:c8:40:b8:14:6e:13:eb:
         ef:31:89:ce:26:c1:e8:0a:58:37:6b:5c:55:2a:13:68:32:80:
         0c:50:ce:47:85:67:98:5e:ce:8c:e5:5a:51:5d:99:4e:19:96:
         79:f8:2e:ca
-----BEGIN CERTIFICATE-----
MIIDyTCCArGgAwIBAgIBATANBgkqhkiG9w0BAQsFADBZMQswCQYDVQQGEwJVUzEL
MAkGA1UECAwCSUwxEDAOBgNVBAcMB0NoaWNhZ28xDDAKBgNVBAoMA0lJVDEMMAoG
A1UECwwDRUNFMQ8wDQYDVQQDDAZlY2U0NDMwHhcNMjExMDIwMjExNDQxWhcNMjIx
MDIwMjExNDQxWjBVMQswCQYDVQQGEwJVUzELMAkGA1UECAwCSUwxEDAOBgNVBAcM
B0NoaWNhZ28xDDAKBgNVBAoMA0lJVDEZMBcGA1UEAwwQZWNlNDQzLmxvY2FsaG9z
dDCCASIwDQYJKoZIhvcNAQEBBQADggEPADCCAQoCggEBALM2ZxMt9tiRpYcPwhew
5VoB5/n+hhLjb/vCJ7O4H+y3WwN+Y5DctKh1b43nTZje0U2tf70iMvZwKUjY+YLR
GWqBnlDu/31HLCSnGYXuY1UJLseVOtcC1uxDMMHWV2DjvV2+PmH4m1p99W14EGd3
qMVZmoLca2R2K/CewjTq5yynwXI3UsZL6PWYOkvQKXWMw3ucR3zwnzGufWuXfyAA
pruqLAbJSeOKKIVORkpSaKTv45zxF3raRxmAfFjO147HuitCmonb2Ug184MikRF1
X0JBVoee0qCjXGI1IUOZsi/eGI9m0c9WCeSVBJQa0vBClo8bbx4YukPngfDwNQSE
cCUCAwEAAaOBnzCBnDAdBgNVHQ4EFgQU7wSWWUhjBYjaWM868cK7c93gizEwHwYD
VR0jBBgwFoAUVysX41Egl0n1eizHkDGFT15V8VUwCQYDVR0TBAIwADALBgNVHQ8E
BAMCBaAwFAYDVR0RBA0wC4IJbG9jYWxob3N0MCwGCWCGSAGG+EIBDQQfFh1PcGVu
U1NMIEdlbmVyYXRlZCBDZXJ0aWZpY2F0ZTANBgkqhkiG9w0BAQsFAAOCAQEATHl8
nwjJiHnGkP8m+9t/kgw2mAGsEBzAzmI1ocNg2Q623Rxb7uq2MLBmIvD8X0Zcf9JN
q0dfcAelEqqKkZycLuAdik1TsVekSVTuuIjqXx10fcb9ZwZT++LbWztkIBRLfxrk
AIcZnWORilp/w7ObIsyntITDbr+kJHQX2/kiaDtW5sWD7R9onpt4c+Yotu6uHqPq
VHud3x0VVremB+HOz81jMDgKhuL6bybqf4HN5zy+omdL/sYYj6gN6nlxAmnDzH/5
SIZeJpZ9APw+TvqWb8PIQLgUbhPr7zGJzibB6ApYN2tcVSoTaDKADFDOR4VnmF7O
jOVaUV2ZThmWefguyg==
-----END CERTIFICATE-----
