Certificate:
    Data:
        Version: 3 (0x2)
        Serial Number: 2 (0x2)
    Signature Algorithm: sha256WithRSAEncryption
        Issuer: C=US, ST=IL, L=Chicago, O=IIT, OU=ECE, CN=ece443
        Validity
            Not Before: Oct 21 01:06:23 2021 GMT
            Not After : Oct 21 01:06:23 2022 GMT
        Subject: C=US, ST=IL, L=Chicago, O=IIT, CN=ece443.hacked
        Subject Public Key Info:
            Public Key Algorithm: rsaEncryption
                Public-Key: (2048 bit)
                Modulus:
                    00:ba:c8:4f:f0:ef:44:f0:f5:0c:ab:a7:62:9c:73:
                    9f:f7:33:87:52:ce:3a:08:44:8e:ba:3d:8d:86:3b:
                    f5:69:c5:9b:bf:52:e7:2a:9b:8e:67:35:95:23:c6:
                    1b:d0:e9:dc:93:95:54:ad:dd:fc:b5:65:ef:88:8f:
                    99:e4:6d:34:05:ee:2c:09:2a:ca:04:a0:67:22:16:
                    eb:54:e0:47:d9:ea:ed:19:d6:8d:0d:66:d1:2c:ae:
                    1f:30:05:8c:bf:99:65:88:6c:61:16:39:75:e2:bc:
                    ac:16:87:e2:07:6b:4b:1c:00:03:62:11:ce:be:fc:
                    b4:b0:38:af:c1:4c:f3:6f:11:e9:29:d8:cd:c0:b4:
                    f6:06:6e:39:d7:9c:44:ef:db:b4:3f:6a:d3:b4:3b:
                    ff:80:fa:8f:5a:83:09:a4:72:3b:05:af:20:e9:4f:
                    15:8b:c1:a7:7a:62:74:3b:7a:56:ba:f2:fc:ac:6a:
                    2b:9a:d6:74:32:97:5a:8b:5e:ea:de:1a:66:de:1b:
                    bd:89:09:b3:b1:7b:95:81:05:12:e3:8c:cf:0a:ef:
                    48:6f:ee:54:00:4c:02:b7:4f:f3:14:1e:39:06:b9:
                    50:44:ec:f5:2e:4f:67:85:62:20:95:73:67:e8:ed:
                    0a:55:97:f0:a1:5f:19:58:98:85:aa:e7:73:31:58:
                    7c:85
                Exponent: 65537 (0x10001)
        X509v3 extensions:
            X509v3 Subject Key Identifier: 
                BC:D6:74:0F:69:77:46:F8:41:18:0B:88:3B:7F:72:E8:41:75:77:62
            X509v3 Authority Key Identifier: 
                keyid:57:2B:17:E3:51:20:97:49:F5:7A:2C:C7:90:31:85:4F:5E:55:F1:55

            X509v3 Basic Constraints: 
                CA:FALSE
            X509v3 Key Usage: 
                Digital Signature, Key Encipherment
            X509v3 Subject Alternative Name: 
                DNS:localhost
            Netscape Comment: 
                OpenSSL Generated Certificate
    Signature Algorithm: sha256WithRSAEncryption
         12:f3:21:74:cc:c3:08:e9:31:45:ec:8e:ec:d0:73:8c:d8:ea:
         eb:70:25:c2:88:90:91:19:29:8f:c5:db:c7:bc:0e:fc:b8:42:
         97:27:79:2a:1f:fc:02:c4:95:b7:bc:e3:ce:09:ce:1d:d2:3d:
         a6:e6:1d:02:9d:3f:90:99:d7:f7:59:3e:50:7e:0e:ce:d9:31:
         6d:85:e5:2e:a9:05:fc:7c:7e:c3:8a:10:8f:df:83:14:ac:5b:
         1d:35:0d:d7:ea:b8:6e:62:14:e0:2e:c1:1a:a4:9e:73:8f:d7:
         96:6a:fa:b9:b6:c2:54:77:d4:54:2e:59:4d:6a:13:63:96:ad:
         60:ca:87:9f:55:7f:46:99:99:ba:0c:1a:96:a6:b7:d3:e2:12:
         0c:6c:2b:76:32:9a:62:b6:be:6e:f2:a2:e8:cf:bb:65:72:4a:
         4a:76:f4:c9:55:cb:20:4a:0c:ad:e2:a4:ef:f7:c8:2e:da:ad:
         2f:f5:63:c0:f2:82:00:cd:bc:9c:ee:0a:3c:ef:3b:f0:9e:47:
         a9:b9:cc:87:29:ce:7f:b0:d4:4e:4d:fe:6d:4f:d4:3c:11:13:
         6c:46:23:a4:dd:7a:68:dc:42:31:dd:54:f9:c2:12:f6:76:08:
         3a:8c:8a:83:4b:14:37:94:e6:c3:e1:91:4b:54:4e:d3:02:f5:
         b3:ea:a5:a4
-----BEGIN CERTIFICATE-----
MIIDxjCCAq6gAwIBAgIBAjANBgkqhkiG9w0BAQsFADBZMQswCQYDVQQGEwJVUzEL
MAkGA1UECAwCSUwxEDAOBgNVBAcMB0NoaWNhZ28xDDAKBgNVBAoMA0lJVDEMMAoG
A1UECwwDRUNFMQ8wDQYDVQQDDAZlY2U0NDMwHhcNMjExMDIxMDEwNjIzWhcNMjIx
MDIxMDEwNjIzWjBSMQswCQYDVQQGEwJVUzELMAkGA1UECAwCSUwxEDAOBgNVBAcM
B0NoaWNhZ28xDDAKBgNVBAoMA0lJVDEWMBQGA1UEAwwNZWNlNDQzLmhhY2tlZDCC
ASIwDQYJKoZIhvcNAQEBBQADggEPADCCAQoCggEBALrIT/DvRPD1DKunYpxzn/cz
h1LOOghEjro9jYY79WnFm79S5yqbjmc1lSPGG9Dp3JOVVK3d/LVl74iPmeRtNAXu
LAkqygSgZyIW61TgR9nq7RnWjQ1m0SyuHzAFjL+ZZYhsYRY5deK8rBaH4gdrSxwA
A2IRzr78tLA4r8FM828R6SnYzcC09gZuOdecRO/btD9q07Q7/4D6j1qDCaRyOwWv
IOlPFYvBp3pidDt6Vrry/KxqK5rWdDKXWote6t4aZt4bvYkJs7F7lYEFEuOMzwrv
SG/uVABMArdP8xQeOQa5UETs9S5PZ4ViIJVzZ+jtClWX8KFfGViYharnczFYfIUC
AwEAAaOBnzCBnDAdBgNVHQ4EFgQUvNZ0D2l3RvhBGAuIO39y6EF1d2IwHwYDVR0j
BBgwFoAUVysX41Egl0n1eizHkDGFT15V8VUwCQYDVR0TBAIwADALBgNVHQ8EBAMC
BaAwFAYDVR0RBA0wC4IJbG9jYWxob3N0MCwGCWCGSAGG+EIBDQQfFh1PcGVuU1NM
IEdlbmVyYXRlZCBDZXJ0aWZpY2F0ZTANBgkqhkiG9w0BAQsFAAOCAQEAEvMhdMzD
COkxReyO7NBzjNjq63AlwoiQkRkpj8Xbx7wO/LhClyd5Kh/8AsSVt7zjzgnOHdI9
puYdAp0/kJnX91k+UH4OztkxbYXlLqkF/Hx+w4oQj9+DFKxbHTUN1+q4bmIU4C7B
GqSec4/Xlmr6ubbCVHfUVC5ZTWoTY5atYMqHn1V/RpmZugwalqa30+ISDGwrdjKa
Yra+bvKi6M+7ZXJKSnb0yVXLIEoMreKk7/fILtqtL/VjwPKCAM28nO4KPO878J5H
qbnMhynOf7DUTk3+bU/UPBETbEYjpN16aNxCMd1U+cIS9nYIOoyKg0sUN5Tmw+GR
S1RO0wL1s+qlpA==
-----END CERTIFICATE-----
