Certificate:
    Data:
        Version: 3 (0x2)
        Serial Number: 3 (0x3)
    Signature Algorithm: sha256WithRSAEncryption
        Issuer: C=US, ST=IL, L=Chicago, O=IIT, OU=ECE, CN=ece443
        Validity
            Not Before: Oct 21 01:52:39 2021 GMT
            Not After : Oct 21 01:52:39 2022 GMT
        Subject: C=US, ST=IL, L=Chicago, O=IIT, CN=ece443.hacked
        Subject Public Key Info:
            Public Key Algorithm: rsaEncryption
                Public-Key: (2048 bit)
                Modulus:
                    00:ba:c8:4f:f0:ef:44:f0:f5:0c:ab:a7:62:9c:73:
                    9f:f7:33:87:52:ce:3a:08:44:8e:ba:3d:8d:86:3b:
                    f5:69:c5:9b:bf:52:e7:2a:9b:8e:67:35:95:23:c6:
                    1b:d0:e9:dc:93:95:54:ad:dd:fc:b5:65:ef:88:8f:
                    99:e4:6d:34:05:ee:2c:09:2a:ca:04:a0:67:22:16:
                    eb:54:e0:47:d9:ea:ed:19:d6:8d:0d:66:d1:2c:ae:
                    1f:30:05:8c:bf:99:65:88:6c:61:16:39:75:e2:bc:
                    ac:16:87:e2:07:6b:4b:1c:00:03:62:11:ce:be:fc:
                    b4:b0:38:af:c1:4c:f3:6f:11:e9:29:d8:cd:c0:b4:
                    f6:06:6e:39:d7:9c:44:ef:db:b4:3f:6a:d3:b4:3b:
                    ff:80:fa:8f:5a:83:09:a4:72:3b:05:af:20:e9:4f:
                    15:8b:c1:a7:7a:62:74:3b:7a:56:ba:f2:fc:ac:6a:
                    2b:9a:d6:74:32:97:5a:8b:5e:ea:de:1a:66:de:1b:
                    bd:89:09:b3:b1:7b:95:81:05:12:e3:8c:cf:0a:ef:
                    48:6f:ee:54:00:4c:02:b7:4f:f3:14:1e:39:06:b9:
                    50:44:ec:f5:2e:4f:67:85:62:20:95:73:67:e8:ed:
                    0a:55:97:f0:a1:5f:19:58:98:85:aa:e7:73:31:58:
                    7c:85
                Exponent: 65537 (0x10001)
        X509v3 extensions:
            X509v3 Subject Key Identifier: 
                BC:D6:74:0F:69:77:46:F8:41:18:0B:88:3B:7F:72:E8:41:75:77:62
            X509v3 Authority Key Identifier: 
                keyid:57:2B:17:E3:51:20:97:49:F5:7A:2C:C7:90:31:85:4F:5E:55:F1:55

            X509v3 Basic Constraints: 
                CA:FALSE
            X509v3 Key Usage: 
                Digital Signature, Key Encipherment
            X509v3 Subject Alternative Name: 
                DNS:localhost
            Netscape Comment: 
                OpenSSL Generated Certificate
    Signature Algorithm: sha256WithRSAEncryption
         23:e6:28:d7:f5:16:0e:d4:af:3b:70:e6:4c:c2:4b:b4:f5:2e:
         8a:95:97:59:ed:e3:52:ba:71:5b:8f:6c:fc:12:5b:fe:6d:33:
         14:98:25:51:97:d7:5a:42:15:04:4b:5a:19:b5:dc:39:9e:03:
         c2:aa:12:d3:fa:4f:93:75:07:f4:9c:51:49:2c:65:a7:c8:24:
         e3:6a:90:c6:97:b8:e1:15:83:d2:43:66:55:f6:dd:29:33:69:
         37:25:bf:25:1a:61:b8:d8:a6:32:fc:2a:91:ab:98:5b:47:b6:
         23:86:b4:53:c5:ba:7a:7e:90:76:95:07:a3:a7:78:2f:32:7b:
         39:69:6d:f5:38:78:07:f8:22:91:c6:f8:46:94:74:74:3c:c6:
         61:8c:a3:9a:48:ca:22:7c:1f:2e:20:35:e9:1a:f9:41:9b:8c:
         c5:65:d0:11:28:99:e5:94:a5:f1:a6:8d:78:6c:8d:37:cb:aa:
         8c:28:69:85:8a:bf:61:f8:6b:04:02:57:7d:2a:1d:d0:1c:df:
         61:85:3e:2b:45:81:a0:e5:62:5d:ce:8b:a2:8c:1d:30:a8:25:
         a2:22:72:93:a8:06:8d:4f:26:e0:fc:c3:44:15:61:b0:1f:19:
         c8:30:d6:03:6a:45:70:ec:0f:09:d0:4f:aa:5b:f4:80:a5:8d:
         2a:c0:ae:43
-----BEGIN CERTIFICATE-----
MIIDxjCCAq6gAwIBAgIBAzANBgkqhkiG9w0BAQsFADBZMQswCQYDVQQGEwJVUzEL
MAkGA1UECAwCSUwxEDAOBgNVBAcMB0NoaWNhZ28xDDAKBgNVBAoMA0lJVDEMMAoG
A1UECwwDRUNFMQ8wDQYDVQQDDAZlY2U0NDMwHhcNMjExMDIxMDE1MjM5WhcNMjIx
MDIxMDE1MjM5WjBSMQswCQYDVQQGEwJVUzELMAkGA1UECAwCSUwxEDAOBgNVBAcM
B0NoaWNhZ28xDDAKBgNVBAoMA0lJVDEWMBQGA1UEAwwNZWNlNDQzLmhhY2tlZDCC
ASIwDQYJKoZIhvcNAQEBBQADggEPADCCAQoCggEBALrIT/DvRPD1DKunYpxzn/cz
h1LOOghEjro9jYY79WnFm79S5yqbjmc1lSPGG9Dp3JOVVK3d/LVl74iPmeRtNAXu
LAkqygSgZyIW61TgR9nq7RnWjQ1m0SyuHzAFjL+ZZYhsYRY5deK8rBaH4gdrSxwA
A2IRzr78tLA4r8FM828R6SnYzcC09gZuOdecRO/btD9q07Q7/4D6j1qDCaRyOwWv
IOlPFYvBp3pidDt6Vrry/KxqK5rWdDKXWote6t4aZt4bvYkJs7F7lYEFEuOMzwrv
SG/uVABMArdP8xQeOQa5UETs9S5PZ4ViIJVzZ+jtClWX8KFfGViYharnczFYfIUC
AwEAAaOBnzCBnDAdBgNVHQ4EFgQUvNZ0D2l3RvhBGAuIO39y6EF1d2IwHwYDVR0j
BBgwFoAUVysX41Egl0n1eizHkDGFT15V8VUwCQYDVR0TBAIwADALBgNVHQ8EBAMC
BaAwFAYDVR0RBA0wC4IJbG9jYWxob3N0MCwGCWCGSAGG+EIBDQQfFh1PcGVuU1NM
IEdlbmVyYXRlZCBDZXJ0aWZpY2F0ZTANBgkqhkiG9w0BAQsFAAOCAQEAI+Yo1/UW
DtSvO3DmTMJLtPUuipWXWe3jUrpxW49s/BJb/m0zFJglUZfXWkIVBEtaGbXcOZ4D
wqoS0/pPk3UH9JxRSSxlp8gk42qQxpe44RWD0kNmVfbdKTNpNyW/JRphuNimMvwq
kauYW0e2I4a0U8W6en6QdpUHo6d4LzJ7OWlt9Th4B/gikcb4RpR0dDzGYYyjmkjK
InwfLiA16Rr5QZuMxWXQESiZ5ZSl8aaNeGyNN8uqjChphYq/YfhrBAJXfSod0Bzf
YYU+K0WBoOViXc6LoowdMKgloiJyk6gGjU8m4PzDRBVhsB8ZyDDWA2pFcOwPCdBP
qlv0gKWNKsCuQw==
-----END CERTIFICATE-----
