Certificate:
    Data:
        Version: 3 (0x2)
        Serial Number: 4 (0x4)
    Signature Algorithm: sha256WithRSAEncryption
        Issuer: C=US, ST=IL, L=Chicago, O=IIT, OU=ECE, CN=ece443
        Validity
            Not Before: Oct 21 02:03:17 2021 GMT
            Not After : Oct 21 02:03:17 2022 GMT
        Subject: C=US, ST=IL, L=Chicago, O=IIT, CN=ece443.hacked
        Subject Public Key Info:
            Public Key Algorithm: rsaEncryption
                Public-Key: (2048 bit)
                Modulus:
                    00:ba:c8:4f:f0:ef:44:f0:f5:0c:ab:a7:62:9c:73:
                    9f:f7:33:87:52:ce:3a:08:44:8e:ba:3d:8d:86:3b:
                    f5:69:c5:9b:bf:52:e7:2a:9b:8e:67:35:95:23:c6:
                    1b:d0:e9:dc:93:95:54:ad:dd:fc:b5:65:ef:88:8f:
                    99:e4:6d:34:05:ee:2c:09:2a:ca:04:a0:67:22:16:
                    eb:54:e0:47:d9:ea:ed:19:d6:8d:0d:66:d1:2c:ae:
                    1f:30:05:8c:bf:99:65:88:6c:61:16:39:75:e2:bc:
                    ac:16:87:e2:07:6b:4b:1c:00:03:62:11:ce:be:fc:
                    b4:b0:38:af:c1:4c:f3:6f:11:e9:29:d8:cd:c0:b4:
                    f6:06:6e:39:d7:9c:44:ef:db:b4:3f:6a:d3:b4:3b:
                    ff:80:fa:8f:5a:83:09:a4:72:3b:05:af:20:e9:4f:
                    15:8b:c1:a7:7a:62:74:3b:7a:56:ba:f2:fc:ac:6a:
                    2b:9a:d6:74:32:97:5a:8b:5e:ea:de:1a:66:de:1b:
                    bd:89:09:b3:b1:7b:95:81:05:12:e3:8c:cf:0a:ef:
                    48:6f:ee:54:00:4c:02:b7:4f:f3:14:1e:39:06:b9:
                    50:44:ec:f5:2e:4f:67:85:62:20:95:73:67:e8:ed:
                    0a:55:97:f0:a1:5f:19:58:98:85:aa:e7:73:31:58:
                    7c:85
                Exponent: 65537 (0x10001)
        X509v3 extensions:
            X509v3 Subject Key Identifier: 
                BC:D6:74:0F:69:77:46:F8:41:18:0B:88:3B:7F:72:E8:41:75:77:62
            X509v3 Authority Key Identifier: 
                keyid:57:2B:17:E3:51:20:97:49:F5:7A:2C:C7:90:31:85:4F:5E:55:F1:55

            X509v3 Basic Constraints: 
                CA:FALSE
            X509v3 Key Usage: 
                Digital Signature, Key Encipherment
            X509v3 Subject Alternative Name: 
                DNS:localhost
            Netscape Comment: 
                OpenSSL Generated Certificate
    Signature Algorithm: sha256WithRSAEncryption
         a9:e1:08:6b:9f:0a:a5:4c:13:35:44:c9:f2:9a:13:7c:f2:fd:
         7e:d5:e3:70:2b:fd:9d:33:18:9d:cd:ef:5a:71:46:2d:35:b2:
         ac:5a:cc:38:ab:cb:1d:37:45:43:20:d8:1a:b9:cf:42:54:80:
         43:10:a2:02:6f:f8:83:0e:ca:50:07:00:01:2c:a1:81:a7:69:
         d9:90:0f:65:ce:cb:00:d1:75:17:83:3d:bd:3e:47:84:93:95:
         c9:cb:72:16:a1:ca:8b:87:a1:1a:34:3d:3e:a2:7c:25:44:53:
         7b:a0:d1:ee:a0:e9:54:ae:12:90:24:af:b8:03:19:f8:60:17:
         57:ae:ba:bc:5f:d6:21:a5:45:16:d0:6c:b0:a6:bf:d5:78:47:
         42:1d:d0:d0:d6:2d:4e:ae:fd:23:b9:a3:aa:f3:91:7d:4c:21:
         9c:29:ba:e3:e1:4c:7a:01:32:7b:3a:75:d4:d1:cb:a1:11:00:
         ef:d0:8e:a7:79:00:5d:65:2c:60:c4:eb:07:da:a4:36:2c:16:
         c3:c4:35:54:03:0e:81:48:bc:5f:9e:24:74:64:5c:7f:3f:f1:
         df:23:7e:b3:09:cc:74:b2:00:c9:fd:31:0f:66:9b:6f:f4:b3:
         5b:d0:9c:d4:3e:72:cd:bc:ca:3f:4a:f2:e0:39:55:b9:58:cb:
         20:e9:e6:fc
-----BEGIN CERTIFICATE-----
MIIDxjCCAq6gAwIBAgIBBDANBgkqhkiG9w0BAQsFADBZMQswCQYDVQQGEwJVUzEL
MAkGA1UECAwCSUwxEDAOBgNVBAcMB0NoaWNhZ28xDDAKBgNVBAoMA0lJVDEMMAoG
A1UECwwDRUNFMQ8wDQYDVQQDDAZlY2U0NDMwHhcNMjExMDIxMDIwMzE3WhcNMjIx
MDIxMDIwMzE3WjBSMQswCQYDVQQGEwJVUzELMAkGA1UECAwCSUwxEDAOBgNVBAcM
B0NoaWNhZ28xDDAKBgNVBAoMA0lJVDEWMBQGA1UEAwwNZWNlNDQzLmhhY2tlZDCC
ASIwDQYJKoZIhvcNAQEBBQADggEPADCCAQoCggEBALrIT/DvRPD1DKunYpxzn/cz
h1LOOghEjro9jYY79WnFm79S5yqbjmc1lSPGG9Dp3JOVVK3d/LVl74iPmeRtNAXu
LAkqygSgZyIW61TgR9nq7RnWjQ1m0SyuHzAFjL+ZZYhsYRY5deK8rBaH4gdrSxwA
A2IRzr78tLA4r8FM828R6SnYzcC09gZuOdecRO/btD9q07Q7/4D6j1qDCaRyOwWv
IOlPFYvBp3pidDt6Vrry/KxqK5rWdDKXWote6t4aZt4bvYkJs7F7lYEFEuOMzwrv
SG/uVABMArdP8xQeOQa5UETs9S5PZ4ViIJVzZ+jtClWX8KFfGViYharnczFYfIUC
AwEAAaOBnzCBnDAdBgNVHQ4EFgQUvNZ0D2l3RvhBGAuIO39y6EF1d2IwHwYDVR0j
BBgwFoAUVysX41Egl0n1eizHkDGFT15V8VUwCQYDVR0TBAIwADALBgNVHQ8EBAMC
BaAwFAYDVR0RBA0wC4IJbG9jYWxob3N0MCwGCWCGSAGG+EIBDQQfFh1PcGVuU1NM
IEdlbmVyYXRlZCBDZXJ0aWZpY2F0ZTANBgkqhkiG9w0BAQsFAAOCAQEAqeEIa58K
pUwTNUTJ8poTfPL9ftXjcCv9nTMYnc3vWnFGLTWyrFrMOKvLHTdFQyDYGrnPQlSA
QxCiAm/4gw7KUAcAASyhgadp2ZAPZc7LANF1F4M9vT5HhJOVyctyFqHKi4ehGjQ9
PqJ8JURTe6DR7qDpVK4SkCSvuAMZ+GAXV666vF/WIaVFFtBssKa/1XhHQh3Q0NYt
Tq79I7mjqvORfUwhnCm64+FMegEyezp11NHLoREA79COp3kAXWUsYMTrB9qkNiwW
w8Q1VAMOgUi8X54kdGRcfz/x3yN+swnMdLIAyf0xD2abb/SzW9Cc1D5yzbzKP0ry
4DlVuVjLIOnm/A==
-----END CERTIFICATE-----
