Certificate:
    Data:
        Version: 3 (0x2)
        Serial Number: 5 (0x5)
    Signature Algorithm: sha256WithRSAEncryption
        Issuer: C=US, ST=IL, L=Chicago, O=IIT, OU=ECE, CN=ece443
        Validity
            Not Before: Oct 21 02:06:09 2021 GMT
            Not After : Oct 21 02:06:09 2022 GMT
        Subject: C=US, ST=IL, L=Chicago, O=IIT, CN=ece443.hacked
        Subject Public Key Info:
            Public Key Algorithm: rsaEncryption
                Public-Key: (2048 bit)
                Modulus:
                    00:ba:c8:4f:f0:ef:44:f0:f5:0c:ab:a7:62:9c:73:
                    9f:f7:33:87:52:ce:3a:08:44:8e:ba:3d:8d:86:3b:
                    f5:69:c5:9b:bf:52:e7:2a:9b:8e:67:35:95:23:c6:
                    1b:d0:e9:dc:93:95:54:ad:dd:fc:b5:65:ef:88:8f:
                    99:e4:6d:34:05:ee:2c:09:2a:ca:04:a0:67:22:16:
                    eb:54:e0:47:d9:ea:ed:19:d6:8d:0d:66:d1:2c:ae:
                    1f:30:05:8c:bf:99:65:88:6c:61:16:39:75:e2:bc:
                    ac:16:87:e2:07:6b:4b:1c:00:03:62:11:ce:be:fc:
                    b4:b0:38:af:c1:4c:f3:6f:11:e9:29:d8:cd:c0:b4:
                    f6:06:6e:39:d7:9c:44:ef:db:b4:3f:6a:d3:b4:3b:
                    ff:80:fa:8f:5a:83:09:a4:72:3b:05:af:20:e9:4f:
                    15:8b:c1:a7:7a:62:74:3b:7a:56:ba:f2:fc:ac:6a:
                    2b:9a:d6:74:32:97:5a:8b:5e:ea:de:1a:66:de:1b:
                    bd:89:09:b3:b1:7b:95:81:05:12:e3:8c:cf:0a:ef:
                    48:6f:ee:54:00:4c:02:b7:4f:f3:14:1e:39:06:b9:
                    50:44:ec:f5:2e:4f:67:85:62:20:95:73:67:e8:ed:
                    0a:55:97:f0:a1:5f:19:58:98:85:aa:e7:73:31:58:
                    7c:85
                Exponent: 65537 (0x10001)
        X509v3 extensions:
            X509v3 Subject Key Identifier: 
                BC:D6:74:0F:69:77:46:F8:41:18:0B:88:3B:7F:72:E8:41:75:77:62
            X509v3 Authority Key Identifier: 
                keyid:57:2B:17:E3:51:20:97:49:F5:7A:2C:C7:90:31:85:4F:5E:55:F1:55

            X509v3 Basic Constraints: 
                CA:FALSE
            X509v3 Key Usage: 
                Digital Signature, Key Encipherment
            X509v3 Subject Alternative Name: 
                DNS:localhost
            Netscape Comment: 
                OpenSSL Generated Certificate
    Signature Algorithm: sha256WithRSAEncryption
         ab:c5:9b:ab:61:51:65:0b:57:32:91:fb:df:ce:d8:dc:56:68:
         ec:54:36:72:3f:d2:39:10:ec:8c:e4:36:4b:ee:49:47:f8:e5:
         65:99:9b:45:6e:7a:9f:a7:31:28:42:c7:66:c7:7e:8d:2f:6d:
         72:66:90:2c:c0:50:59:38:99:c2:9b:63:32:9b:46:19:8f:d8:
         7d:44:82:a4:05:81:fe:01:23:ab:62:95:b3:c6:76:22:66:02:
         dc:4b:71:5c:2a:ce:f7:80:1b:6c:4d:bd:4b:2e:94:78:eb:55:
         12:50:e2:9e:5b:31:8f:a8:59:b6:7f:85:a2:09:82:38:67:3c:
         7c:04:69:c1:16:bf:91:9d:af:2e:36:b8:30:a7:9a:9a:8b:e1:
         81:a2:9b:9d:b9:d5:87:2d:8e:73:78:a0:5c:69:4e:1c:19:be:
         2f:f2:34:c0:69:f2:aa:bd:79:4f:bf:ba:b1:a9:68:f7:70:f3:
         ef:f5:41:5e:ef:37:0b:d2:55:88:80:46:13:43:93:50:07:9e:
         26:74:38:16:85:42:63:00:1b:2e:ce:16:40:01:8d:ea:c2:1d:
         89:16:d3:86:0d:8c:a2:62:93:a0:82:60:36:78:d8:d5:4a:df:
         a9:a5:37:9b:61:b7:d3:60:12:53:f4:32:e6:bb:cf:e8:a6:74:
         41:14:53:8d
-----BEGIN CERTIFICATE-----
MIIDxjCCAq6gAwIBAgIBBTANBgkqhkiG9w0BAQsFADBZMQswCQYDVQQGEwJVUzEL
MAkGA1UECAwCSUwxEDAOBgNVBAcMB0NoaWNhZ28xDDAKBgNVBAoMA0lJVDEMMAoG
A1UECwwDRUNFMQ8wDQYDVQQDDAZlY2U0NDMwHhcNMjExMDIxMDIwNjA5WhcNMjIx
MDIxMDIwNjA5WjBSMQswCQYDVQQGEwJVUzELMAkGA1UECAwCSUwxEDAOBgNVBAcM
B0NoaWNhZ28xDDAKBgNVBAoMA0lJVDEWMBQGA1UEAwwNZWNlNDQzLmhhY2tlZDCC
ASIwDQYJKoZIhvcNAQEBBQADggEPADCCAQoCggEBALrIT/DvRPD1DKunYpxzn/cz
h1LOOghEjro9jYY79WnFm79S5yqbjmc1lSPGG9Dp3JOVVK3d/LVl74iPmeRtNAXu
LAkqygSgZyIW61TgR9nq7RnWjQ1m0SyuHzAFjL+ZZYhsYRY5deK8rBaH4gdrSxwA
A2IRzr78tLA4r8FM828R6SnYzcC09gZuOdecRO/btD9q07Q7/4D6j1qDCaRyOwWv
IOlPFYvBp3pidDt6Vrry/KxqK5rWdDKXWote6t4aZt4bvYkJs7F7lYEFEuOMzwrv
SG/uVABMArdP8xQeOQa5UETs9S5PZ4ViIJVzZ+jtClWX8KFfGViYharnczFYfIUC
AwEAAaOBnzCBnDAdBgNVHQ4EFgQUvNZ0D2l3RvhBGAuIO39y6EF1d2IwHwYDVR0j
BBgwFoAUVysX41Egl0n1eizHkDGFT15V8VUwCQYDVR0TBAIwADALBgNVHQ8EBAMC
BaAwFAYDVR0RBA0wC4IJbG9jYWxob3N0MCwGCWCGSAGG+EIBDQQfFh1PcGVuU1NM
IEdlbmVyYXRlZCBDZXJ0aWZpY2F0ZTANBgkqhkiG9w0BAQsFAAOCAQEAq8Wbq2FR
ZQtXMpH7387Y3FZo7FQ2cj/SORDsjOQ2S+5JR/jlZZmbRW56n6cxKELHZsd+jS9t
cmaQLMBQWTiZwptjMptGGY/YfUSCpAWB/gEjq2KVs8Z2ImYC3EtxXCrO94AbbE29
Sy6UeOtVElDinlsxj6hZtn+FogmCOGc8fARpwRa/kZ2vLja4MKeamovhgaKbnbnV
hy2Oc3igXGlOHBm+L/I0wGnyqr15T7+6salo93Dz7/VBXu83C9JViIBGE0OTUAee
JnQ4FoVCYwAbLs4WQAGN6sIdiRbThg2MomKToIJgNnjY1UrfqaU3m2G302ASU/Qy
5rvP6KZ0QRRTjQ==
-----END CERTIFICATE-----
