Certificate:
    Data:
        Version: 3 (0x2)
        Serial Number: 6 (0x6)
    Signature Algorithm: sha256WithRSAEncryption
        Issuer: C=US, ST=IL, L=Chicago, O=IIT, OU=ECE, CN=ece443
        Validity
            Not Before: Oct 21 02:14:48 2021 GMT
            Not After : Oct 21 02:14:48 2022 GMT
        Subject: C=US, ST=IL, L=Chicago, O=IIT, CN=ece443.hacked
        Subject Public Key Info:
            Public Key Algorithm: rsaEncryption
                Public-Key: (2048 bit)
                Modulus:
                    00:ba:c8:4f:f0:ef:44:f0:f5:0c:ab:a7:62:9c:73:
                    9f:f7:33:87:52:ce:3a:08:44:8e:ba:3d:8d:86:3b:
                    f5:69:c5:9b:bf:52:e7:2a:9b:8e:67:35:95:23:c6:
                    1b:d0:e9:dc:93:95:54:ad:dd:fc:b5:65:ef:88:8f:
                    99:e4:6d:34:05:ee:2c:09:2a:ca:04:a0:67:22:16:
                    eb:54:e0:47:d9:ea:ed:19:d6:8d:0d:66:d1:2c:ae:
                    1f:30:05:8c:bf:99:65:88:6c:61:16:39:75:e2:bc:
                    ac:16:87:e2:07:6b:4b:1c:00:03:62:11:ce:be:fc:
                    b4:b0:38:af:c1:4c:f3:6f:11:e9:29:d8:cd:c0:b4:
                    f6:06:6e:39:d7:9c:44:ef:db:b4:3f:6a:d3:b4:3b:
                    ff:80:fa:8f:5a:83:09:a4:72:3b:05:af:20:e9:4f:
                    15:8b:c1:a7:7a:62:74:3b:7a:56:ba:f2:fc:ac:6a:
                    2b:9a:d6:74:32:97:5a:8b:5e:ea:de:1a:66:de:1b:
                    bd:89:09:b3:b1:7b:95:81:05:12:e3:8c:cf:0a:ef:
                    48:6f:ee:54:00:4c:02:b7:4f:f3:14:1e:39:06:b9:
                    50:44:ec:f5:2e:4f:67:85:62:20:95:73:67:e8:ed:
                    0a:55:97:f0:a1:5f:19:58:98:85:aa:e7:73:31:58:
                    7c:85
                Exponent: 65537 (0x10001)
        X509v3 extensions:
            X509v3 Subject Key Identifier: 
                BC:D6:74:0F:69:77:46:F8:41:18:0B:88:3B:7F:72:E8:41:75:77:62
            X509v3 Authority Key Identifier: 
                keyid:57:2B:17:E3:51:20:97:49:F5:7A:2C:C7:90:31:85:4F:5E:55:F1:55

            X509v3 Basic Constraints: 
                CA:FALSE
            X509v3 Key Usage: 
                Digital Signature, Key Encipherment
            X509v3 Subject Alternative Name: 
                DNS:localhost
            Netscape Comment: 
                OpenSSL Generated Certificate
    Signature Algorithm: sha256WithRSAEncryption
         5d:37:a7:74:33:95:c4:d7:69:c1:9b:86:51:4d:0c:0f:1d:b9:
         08:95:0f:d2:a7:c3:63:60:42:49:74:65:7b:8a:e7:ce:b7:78:
         49:a0:59:22:0f:b3:a5:db:39:66:6b:33:eb:bf:76:3d:11:1b:
         18:a1:d9:e1:de:bb:be:37:cb:b1:97:1b:60:2a:b9:93:7b:ab:
         75:d3:98:f5:2a:04:ec:a0:b9:3f:db:5a:9a:fc:63:09:bc:3b:
         05:b6:35:d0:20:99:6b:ab:a5:5a:27:ad:36:0b:46:f0:31:13:
         fb:18:0e:35:fb:5b:fd:7c:4c:b0:f6:71:e0:c8:fa:ec:06:8a:
         36:98:8d:a2:94:0b:01:3e:53:67:9f:e3:57:48:2f:ad:e6:2b:
         b3:7c:01:d2:10:ac:85:2a:0b:60:bf:5e:d3:a2:1b:26:91:09:
         97:14:63:c1:8d:b0:36:19:65:ae:71:2d:c5:66:4b:30:e0:65:
         12:08:90:92:2e:22:9e:4a:3a:e4:29:e5:f1:bc:c2:16:3a:8c:
         44:68:03:bf:bb:ad:d7:95:b1:1f:7c:23:5c:56:36:3f:71:69:
         eb:8d:2c:44:f2:43:3c:0b:a9:3c:64:9e:34:f1:64:52:f4:77:
         7c:bc:60:62:b3:12:49:9e:e8:f9:a3:0e:bb:06:f7:b2:9a:40:
         da:14:46:1f
-----BEGIN CERTIFICATE-----
MIIDxjCCAq6gAwIBAgIBBjANBgkqhkiG9w0BAQsFADBZMQswCQYDVQQGEwJVUzEL
MAkGA1UECAwCSUwxEDAOBgNVBAcMB0NoaWNhZ28xDDAKBgNVBAoMA0lJVDEMMAoG
A1UECwwDRUNFMQ8wDQYDVQQDDAZlY2U0NDMwHhcNMjExMDIxMDIxNDQ4WhcNMjIx
MDIxMDIxNDQ4WjBSMQswCQYDVQQGEwJVUzELMAkGA1UECAwCSUwxEDAOBgNVBAcM
B0NoaWNhZ28xDDAKBgNVBAoMA0lJVDEWMBQGA1UEAwwNZWNlNDQzLmhhY2tlZDCC
ASIwDQYJKoZIhvcNAQEBBQADggEPADCCAQoCggEBALrIT/DvRPD1DKunYpxzn/cz
h1LOOghEjro9jYY79WnFm79S5yqbjmc1lSPGG9Dp3JOVVK3d/LVl74iPmeRtNAXu
LAkqygSgZyIW61TgR9nq7RnWjQ1m0SyuHzAFjL+ZZYhsYRY5deK8rBaH4gdrSxwA
A2IRzr78tLA4r8FM828R6SnYzcC09gZuOdecRO/btD9q07Q7/4D6j1qDCaRyOwWv
IOlPFYvBp3pidDt6Vrry/KxqK5rWdDKXWote6t4aZt4bvYkJs7F7lYEFEuOMzwrv
SG/uVABMArdP8xQeOQa5UETs9S5PZ4ViIJVzZ+jtClWX8KFfGViYharnczFYfIUC
AwEAAaOBnzCBnDAdBgNVHQ4EFgQUvNZ0D2l3RvhBGAuIO39y6EF1d2IwHwYDVR0j
BBgwFoAUVysX41Egl0n1eizHkDGFT15V8VUwCQYDVR0TBAIwADALBgNVHQ8EBAMC
BaAwFAYDVR0RBA0wC4IJbG9jYWxob3N0MCwGCWCGSAGG+EIBDQQfFh1PcGVuU1NM
IEdlbmVyYXRlZCBDZXJ0aWZpY2F0ZTANBgkqhkiG9w0BAQsFAAOCAQEAXTendDOV
xNdpwZuGUU0MDx25CJUP0qfDY2BCSXRle4rnzrd4SaBZIg+zpds5Zmsz6792PREb
GKHZ4d67vjfLsZcbYCq5k3urddOY9SoE7KC5P9tamvxjCbw7BbY10CCZa6ulWiet
NgtG8DET+xgONftb/XxMsPZx4Mj67AaKNpiNopQLAT5TZ5/jV0gvreYrs3wB0hCs
hSoLYL9e06IbJpEJlxRjwY2wNhllrnEtxWZLMOBlEgiQki4inko65Cnl8bzCFjqM
RGgDv7ut15WxH3wjXFY2P3Fp640sRPJDPAupPGSeNPFkUvR3fLxgYrMSSZ7o+aMO
uwb3sppA2hRGHw==
-----END CERTIFICATE-----
