Certificate:
    Data:
        Version: 3 (0x2)
        Serial Number: 7 (0x7)
    Signature Algorithm: sha256WithRSAEncryption
        Issuer: C=US, ST=IL, L=Chicago, O=IIT, OU=ECE, CN=ece443
        Validity
            Not Before: Oct 21 02:15:45 2021 GMT
            Not After : Oct 21 02:15:45 2022 GMT
        Subject: C=US, ST=IL, L=Chicago, O=IIT, CN=ece443.hacked
        Subject Public Key Info:
            Public Key Algorithm: rsaEncryption
                Public-Key: (2048 bit)
                Modulus:
                    00:ba:c8:4f:f0:ef:44:f0:f5:0c:ab:a7:62:9c:73:
                    9f:f7:33:87:52:ce:3a:08:44:8e:ba:3d:8d:86:3b:
                    f5:69:c5:9b:bf:52:e7:2a:9b:8e:67:35:95:23:c6:
                    1b:d0:e9:dc:93:95:54:ad:dd:fc:b5:65:ef:88:8f:
                    99:e4:6d:34:05:ee:2c:09:2a:ca:04:a0:67:22:16:
                    eb:54:e0:47:d9:ea:ed:19:d6:8d:0d:66:d1:2c:ae:
                    1f:30:05:8c:bf:99:65:88:6c:61:16:39:75:e2:bc:
                    ac:16:87:e2:07:6b:4b:1c:00:03:62:11:ce:be:fc:
                    b4:b0:38:af:c1:4c:f3:6f:11:e9:29:d8:cd:c0:b4:
                    f6:06:6e:39:d7:9c:44:ef:db:b4:3f:6a:d3:b4:3b:
                    ff:80:fa:8f:5a:83:09:a4:72:3b:05:af:20:e9:4f:
                    15:8b:c1:a7:7a:62:74:3b:7a:56:ba:f2:fc:ac:6a:
                    2b:9a:d6:74:32:97:5a:8b:5e:ea:de:1a:66:de:1b:
                    bd:89:09:b3:b1:7b:95:81:05:12:e3:8c:cf:0a:ef:
                    48:6f:ee:54:00:4c:02:b7:4f:f3:14:1e:39:06:b9:
                    50:44:ec:f5:2e:4f:67:85:62:20:95:73:67:e8:ed:
                    0a:55:97:f0:a1:5f:19:58:98:85:aa:e7:73:31:58:
                    7c:85
                Exponent: 65537 (0x10001)
        X509v3 extensions:
            X509v3 Subject Key Identifier: 
                BC:D6:74:0F:69:77:46:F8:41:18:0B:88:3B:7F:72:E8:41:75:77:62
            X509v3 Authority Key Identifier: 
                keyid:57:2B:17:E3:51:20:97:49:F5:7A:2C:C7:90:31:85:4F:5E:55:F1:55

            X509v3 Basic Constraints: 
                CA:FALSE
            X509v3 Key Usage: 
                Digital Signature, Key Encipherment
            X509v3 Subject Alternative Name: 
                DNS:localhost
            Netscape Comment: 
                OpenSSL Generated Certificate
    Signature Algorithm: sha256WithRSAEncryption
         9b:ee:3b:18:49:a3:ff:db:f9:5e:2f:3d:50:cd:35:f7:ef:a4:
         e8:08:96:e2:8a:96:6e:90:99:69:76:dc:5c:05:a1:5c:a5:08:
         41:cb:09:6f:65:68:3c:26:41:63:d0:78:17:44:75:7c:c8:64:
         f6:fe:8f:99:f3:04:da:f8:7c:dc:81:09:0c:d6:a7:e6:a7:3d:
         11:3b:67:68:ee:a1:83:74:0a:28:e2:9d:90:43:82:0a:0b:95:
         6f:8b:a2:5b:7d:dd:f9:de:4e:90:5e:15:ed:3b:7c:22:c6:a7:
         a8:ed:30:79:be:c7:2a:54:ed:80:f0:e4:9e:eb:07:1f:f4:1c:
         05:2a:18:78:4b:70:3e:62:09:86:6e:9b:06:30:71:8c:3d:f3:
         b8:fc:60:34:f3:80:a8:33:9c:11:7d:1e:d5:6d:f0:df:9c:e0:
         81:99:54:4c:78:f2:17:76:ce:d8:63:0a:ee:44:e3:eb:9d:0c:
         42:0c:f7:e7:4d:12:9b:bf:81:ad:1f:45:db:10:3d:b6:ff:dc:
         8f:c2:b1:fb:7a:06:e5:cd:14:d5:76:e8:28:9c:fe:6d:e5:a6:
         ca:6b:c2:56:95:61:46:7f:41:6b:0f:4d:54:16:89:5c:9d:b3:
         7a:f2:d5:ed:14:9b:f6:d9:58:71:a3:b2:d5:01:92:fb:d3:2f:
         cb:5e:a4:b0
-----BEGIN CERTIFICATE-----
MIIDxjCCAq6gAwIBAgIBBzANBgkqhkiG9w0BAQsFADBZMQswCQYDVQQGEwJVUzEL
MAkGA1UECAwCSUwxEDAOBgNVBAcMB0NoaWNhZ28xDDAKBgNVBAoMA0lJVDEMMAoG
A1UECwwDRUNFMQ8wDQYDVQQDDAZlY2U0NDMwHhcNMjExMDIxMDIxNTQ1WhcNMjIx
MDIxMDIxNTQ1WjBSMQswCQYDVQQGEwJVUzELMAkGA1UECAwCSUwxEDAOBgNVBAcM
B0NoaWNhZ28xDDAKBgNVBAoMA0lJVDEWMBQGA1UEAwwNZWNlNDQzLmhhY2tlZDCC
ASIwDQYJKoZIhvcNAQEBBQADggEPADCCAQoCggEBALrIT/DvRPD1DKunYpxzn/cz
h1LOOghEjro9jYY79WnFm79S5yqbjmc1lSPGG9Dp3JOVVK3d/LVl74iPmeRtNAXu
LAkqygSgZyIW61TgR9nq7RnWjQ1m0SyuHzAFjL+ZZYhsYRY5deK8rBaH4gdrSxwA
A2IRzr78tLA4r8FM828R6SnYzcC09gZuOdecRO/btD9q07Q7/4D6j1qDCaRyOwWv
IOlPFYvBp3pidDt6Vrry/KxqK5rWdDKXWote6t4aZt4bvYkJs7F7lYEFEuOMzwrv
SG/uVABMArdP8xQeOQa5UETs9S5PZ4ViIJVzZ+jtClWX8KFfGViYharnczFYfIUC
AwEAAaOBnzCBnDAdBgNVHQ4EFgQUvNZ0D2l3RvhBGAuIO39y6EF1d2IwHwYDVR0j
BBgwFoAUVysX41Egl0n1eizHkDGFT15V8VUwCQYDVR0TBAIwADALBgNVHQ8EBAMC
BaAwFAYDVR0RBA0wC4IJbG9jYWxob3N0MCwGCWCGSAGG+EIBDQQfFh1PcGVuU1NM
IEdlbmVyYXRlZCBDZXJ0aWZpY2F0ZTANBgkqhkiG9w0BAQsFAAOCAQEAm+47GEmj
/9v5Xi89UM019++k6AiW4oqWbpCZaXbcXAWhXKUIQcsJb2VoPCZBY9B4F0R1fMhk
9v6PmfME2vh83IEJDNan5qc9ETtnaO6hg3QKKOKdkEOCCguVb4uiW33d+d5OkF4V
7Tt8IsanqO0web7HKlTtgPDknusHH/QcBSoYeEtwPmIJhm6bBjBxjD3zuPxgNPOA
qDOcEX0e1W3w35zggZlUTHjyF3bO2GMK7kTj650MQgz3500Sm7+BrR9F2xA9tv/c
j8Kx+3oG5c0U1XboKJz+beWmymvCVpVhRn9Baw9NVBaJXJ2zevLV7RSb9tlYcaOy
1QGS+9Mvy16ksA==
-----END CERTIFICATE-----
