Certificate:
    Data:
        Version: 3 (0x2)
        Serial Number: 8 (0x8)
    Signature Algorithm: sha256WithRSAEncryption
        Issuer: C=US, ST=IL, L=Chicago, O=IIT, OU=ECE, CN=ece443
        Validity
            Not Before: Oct 21 02:26:57 2021 GMT
            Not After : Oct 21 02:26:57 2022 GMT
        Subject: C=US, ST=IL, L=Chicago, O=IIT, CN=ece443.hacked
        Subject Public Key Info:
            Public Key Algorithm: rsaEncryption
                Public-Key: (2048 bit)
                Modulus:
                    00:b8:0d:94:05:30:e8:c7:31:b6:55:27:87:de:fe:
                    db:b6:0f:da:26:89:5b:d8:79:7a:6a:a0:e2:9e:81:
                    cc:4e:95:d6:3a:2c:0b:20:5a:16:7e:94:4d:93:3e:
                    d9:0a:52:5c:2a:86:c6:e3:42:0e:57:67:5c:aa:6c:
                    e0:e2:71:4b:e3:de:b8:cd:25:17:83:b6:82:03:14:
                    c9:dd:8f:0a:76:2f:eb:74:be:89:f3:d5:69:ea:56:
                    bc:68:68:7a:65:ad:a9:b7:3a:88:c2:b3:67:38:df:
                    76:90:58:20:d1:d3:39:cb:3e:35:20:51:6a:67:10:
                    bc:27:8d:8b:77:6b:91:b9:4a:71:58:8f:0c:c0:43:
                    ce:c1:08:23:8e:f4:b3:e0:d8:c3:75:06:75:fc:c4:
                    96:20:fc:fe:5d:b6:be:bf:4c:cd:0b:d7:bc:24:3c:
                    f2:d4:7c:10:c5:8a:85:ae:f5:c4:ec:cd:5c:4d:3a:
                    74:61:b6:9d:a6:7e:ba:2e:20:2f:22:c5:59:8c:2a:
                    d0:28:54:c4:24:65:d1:2c:42:b5:3b:4f:30:fa:64:
                    8e:79:a6:f6:90:fc:b7:e1:3c:ba:94:3c:01:4d:f5:
                    75:8d:d0:3a:65:74:16:e1:75:aa:1a:7f:8c:c1:4f:
                    82:27:de:01:ba:1e:da:33:13:cc:4f:99:81:23:91:
                    ea:d1
                Exponent: 65537 (0x10001)
        X509v3 extensions:
            X509v3 Subject Key Identifier: 
                EE:22:A0:D6:04:BB:C0:2A:7D:B1:59:02:B1:4E:22:C2:6A:B9:BA:E3
            X509v3 Authority Key Identifier: 
                keyid:0D:D2:99:89:CD:66:FA:A6:AA:B6:FD:C5:D8:FB:8A:38:C8:19:00:59

            X509v3 Basic Constraints: 
                CA:FALSE
            X509v3 Key Usage: 
                Digital Signature, Key Encipherment
            X509v3 Subject Alternative Name: 
                DNS:ece443.hacked
            Netscape Comment: 
                OpenSSL Generated Certificate
    Signature Algorithm: sha256WithRSAEncryption
         75:b9:a7:31:27:f7:d5:cc:f8:05:2c:fa:06:59:de:c9:b2:dd:
         72:55:63:f8:81:eb:aa:9b:1e:9a:36:ad:a7:70:b0:4e:62:53:
         60:33:5e:34:e2:8a:ba:63:c0:a7:74:4b:21:b1:d5:67:06:a3:
         4f:df:5b:d4:15:3f:41:78:1f:15:b0:63:4d:df:63:35:52:ea:
         20:67:8e:04:f5:03:b0:ad:6f:b1:da:43:26:99:2b:1d:16:58:
         55:31:86:c5:ec:c4:82:3c:91:7f:5c:b1:af:ac:f8:88:d9:1f:
         ef:bf:20:76:87:46:0c:e8:dd:ae:67:3b:bf:af:e0:6a:aa:4a:
         80:b6:b6:fa:d7:26:28:5b:45:61:d0:08:09:99:31:9a:bd:40:
         f1:8f:03:21:d0:af:40:e8:3f:7f:fd:6d:dc:e7:17:58:e9:dc:
         38:1a:48:ad:ce:c9:92:4c:b9:63:08:3c:98:a0:c3:3d:c2:27:
         56:48:a6:05:35:fc:40:f6:2f:80:2f:5c:1e:5e:cc:a6:fb:28:
         e6:50:70:0f:99:4f:0d:21:6e:09:8c:bb:ab:d8:7e:ef:f9:3f:
         7b:25:d7:91:0c:95:f7:7c:52:2a:b4:0f:07:4c:1b:cb:cf:b1:
         96:ad:7e:27:90:db:28:36:89:c6:06:4f:e0:9e:3a:e7:01:9b:
         30:48:21:d2
-----BEGIN CERTIFICATE-----
MIIDyjCCArKgAwIBAgIBCDANBgkqhkiG9w0BAQsFADBZMQswCQYDVQQGEwJVUzEL
MAkGA1UECAwCSUwxEDAOBgNVBAcMB0NoaWNhZ28xDDAKBgNVBAoMA0lJVDEMMAoG
A1UECwwDRUNFMQ8wDQYDVQQDDAZlY2U0NDMwHhcNMjExMDIxMDIyNjU3WhcNMjIx
MDIxMDIyNjU3WjBSMQswCQYDVQQGEwJVUzELMAkGA1UECAwCSUwxEDAOBgNVBAcM
B0NoaWNhZ28xDDAKBgNVBAoMA0lJVDEWMBQGA1UEAwwNZWNlNDQzLmhhY2tlZDCC
ASIwDQYJKoZIhvcNAQEBBQADggEPADCCAQoCggEBALgNlAUw6McxtlUnh97+27YP
2iaJW9h5emqg4p6BzE6V1josCyBaFn6UTZM+2QpSXCqGxuNCDldnXKps4OJxS+Pe
uM0lF4O2ggMUyd2PCnYv63S+ifPVaepWvGhoemWtqbc6iMKzZzjfdpBYINHTOcs+
NSBRamcQvCeNi3drkblKcViPDMBDzsEII470s+DYw3UGdfzEliD8/l22vr9MzQvX
vCQ88tR8EMWKha71xOzNXE06dGG2naZ+ui4gLyLFWYwq0ChUxCRl0SxCtTtPMPpk
jnmm9pD8t+E8upQ8AU31dY3QOmV0FuF1qhp/jMFPgifeAboe2jMTzE+ZgSOR6tEC
AwEAAaOBozCBoDAdBgNVHQ4EFgQU7iKg1gS7wCp9sVkCsU4iwmq5uuMwHwYDVR0j
BBgwFoAUDdKZic1m+qaqtv3F2PuKOMgZAFkwCQYDVR0TBAIwADALBgNVHQ8EBAMC
BaAwGAYDVR0RBBEwD4INZWNlNDQzLmhhY2tlZDAsBglghkgBhvhCAQ0EHxYdT3Bl
blNTTCBHZW5lcmF0ZWQgQ2VydGlmaWNhdGUwDQYJKoZIhvcNAQELBQADggEBAHW5
pzEn99XM+AUs+gZZ3smy3XJVY/iB66qbHpo2radwsE5iU2AzXjTiirpjwKd0SyGx
1WcGo0/fW9QVP0F4HxWwY03fYzVS6iBnjgT1A7Ctb7HaQyaZKx0WWFUxhsXsxII8
kX9csa+s+IjZH++/IHaHRgzo3a5nO7+v4GqqSoC2tvrXJihbRWHQCAmZMZq9QPGP
AyHQr0DoP3/9bdznF1jp3DgaSK3OyZJMuWMIPJigwz3CJ1ZIpgU1/ED2L4AvXB5e
zKb7KOZQcA+ZTw0hbgmMu6vYfu/5P3sl15EMlfd8Uiq0DwdMG8vPsZatfieQ2yg2
icYGT+CeOucBmzBIIdI=
-----END CERTIFICATE-----
